; Function Attrs: mustprogress nounwind uwtable
define internal void @_ZN12_GLOBAL__N_118SharedFromThisVirtD1Ev(ptr nocapture noundef nonnull readonly align 8 dereferenceable(8) %0) unnamed_addr #0 align 2 personality ptr @__gxx_personality_v0 {
  %2 = getelementptr inbounds i8, ptr %0, i64 24
  %.val.i = load ptr, ptr %2, align 8
  %.not.i.i.i.i.i = icmp eq ptr %.val.i, null
  br i1 %.not.i.i.i.i.i, label %_ZN12_GLOBAL__N_119SharedFromThisVBaseD2Ev.exit, label %3

3:                                                ; preds = %1
  %4 = getelementptr inbounds i8, ptr %.val.i, i64 12
  %5 = load i8, ptr @__libc_single_threaded, align 1
  %.not.i.i.i.i.i.i = icmp eq i8 %5, 0
  br i1 %.not.i.i.i.i.i.i, label %9, label %6

6:                                                ; preds = %3
  %7 = load i32, ptr %4, align 4
  %8 = add nsw i32 %7, -1
  store i32 %8, ptr %4, align 4
  br label %11

9:                                                ; preds = %3
  %10 = atomicrmw volatile add ptr %4, i32 -1 acq_rel, align 4
  br label %11

11:                                               ; preds = %9, %6
  %.0.i.i.i.i.i.i = phi i32 [ %7, %6 ], [ %10, %9 ]
  %12 = icmp eq i32 %.0.i.i.i.i.i.i, 1
  br i1 %12, label %13, label %_ZN12_GLOBAL__N_119SharedFromThisVBaseD2Ev.exit

13:                                               ; preds = %11
  %14 = load ptr, ptr %.val.i, align 8
  %15 = getelementptr inbounds i8, ptr %14, i64 24
  %16 = load ptr, ptr %15, align 8
  tail call void %16(ptr noundef nonnull align 8 dereferenceable(16) %.val.i) #28
  br label %_ZN12_GLOBAL__N_119SharedFromThisVBaseD2Ev.exit

_ZN12_GLOBAL__N_119SharedFromThisVBaseD2Ev.exit:  ; preds = %1, %11, %13
  ret void
}